(lp0
(lp1
F0.00018405914306640625
aF60.70461702346802
aF91.17416405677795
aF121.72082805633545
aF151.96211504936218
aF182.40845012664795
aF212.92153596878052
aF243.54991698265076
aF274.0470690727234
aF304.84503698349
aF335.51056599617004
aF366.0165159702301
aF396.27487111091614
aF427.04204511642456
aF457.528990983963
aF487.8311879634857
aF518.2476201057434
aF548.4628031253815
aF578.7974331378937
aF609.4181699752808
aa.