(lp0
(lp1
F5.2928924560546875e-05
aF11.109725952148438
aF22.14651083946228
aF33.17413091659546
aF44.261271953582764
aF55.23483681678772
aF66.18561100959778
aF77.36669182777405
aF88.1775369644165
aF110.80113196372986
aF224.9770839214325
aF280.5491998195648
aa(lp2
F6.198883056640625e-05
aF10.860278129577637
aF22.043015003204346
aF33.19263696670532
aF44.2939350605011
aF55.34172010421753
aF66.31153512001038
aF77.20889496803284
aF88.31602501869202
aF110.53983402252197
aF219.02376508712769
aF272.90943598747253
aa(lp3
F6.389617919921875e-05
aF10.787171125411987
aF21.686211109161377
aF32.3599169254303
aF43.110076904296875
aF53.968234062194824
aF64.70374989509583
aF75.33539009094238
aF85.93474197387695
aF107.18140196800232
aF215.14082407951355
aF268.4497699737549
aa(lp4
F5.602836608886719e-05
aF10.719983100891113
aF21.436384916305542
aF32.14970898628235
aF42.85070204734802
aF53.519288063049316
aF64.21369504928589
aF74.98051500320435
aF85.87020707130432
aF107.21581101417542
aF214.04339909553528
aF267.9193730354309
aa(lp5
F6.29425048828125e-05
aF10.632094860076904
aF21.240437984466553
aF31.88797092437744
aF42.52280402183533
aF53.11908483505249
aF63.72284293174744
aF74.3658299446106
aF84.99611783027649
aF106.27271389961243
aF212.47512102127075
aF265.51040291786194
aa(lp6
F6.103515625e-05
aF10.57715392112732
aF21.151916980743408
aF31.70594811439514
aF42.30706596374512
aF52.8965380191803
aF63.48573589324951
aF74.06241297721863
aF84.66782808303833
aF105.82091903686523
aF211.70110607147217
aF264.7432200908661
aa(lp7
F5.3882598876953125e-05
aF11.163398027420044
aF21.820012092590332
aF32.50724697113037
aF43.27945804595947
aF53.93478989601135
aF64.58042502403259
aF75.23205208778381
aF85.88924098014832
aF107.36296010017395
aF214.84817600250244
aF269.4541370868683
aa(lp8
F6.198883056640625e-05
aF10.833192110061646
aF21.73756504058838
aF32.669480085372925
aF43.45194697380066
aF54.34953594207764
aF65.3066999912262
aF76.36285305023193
aF87.35058498382568
aF109.3055989742279
aF218.6579270362854
aF272.4310209751129
aa(lp9
F6.008148193359375e-05
aF11.143051862716675
aF22.21043300628662
aF33.12408185005188
aF44.043582916259766
aF55.00763702392578
aF65.98856997489929
aF76.9768579006195
aF88.0261800289154
aF110.07261085510254
aF220.73862290382385
aF276.20366406440735
aa(lp10
F7.915496826171875e-05
aF10.973104000091553
aF22.122276067733765
aF33.072418212890625
aF43.7737340927124
aF54.64707803726196
aF65.2904942035675
aF76.1230161190033
aF86.93582010269165
aF108.4709119796753
aF216.47421407699585
aF270.03234815597534
aa.