(lp0
(lp1
(dp2
a(dp3
((Vcitations
p4
Vlow
p5
tp6
tp7
F10262785.490518222
s((g4
Vmedium
p8
tp9
tp10
F2821865.032596347
s((g4
Vhigh
p11
tp12
tp13
F242261.346150485
sa(dp14
g7
F10313719.531052748
sg10
F2953263.1895828736
sg13
F248705.2927830501
sa(dp15
g7
F10598988.801673515
sg10
F3008051.7128128503
sg13
F242685.31807246918
sa(dp16
g7
F10657960.32509917
sg10
F3008975.0191128743
sg13
F246602.5311936531
sa(dp17
g7
F10517966.251849992
sg10
F3013093.5565940426
sg13
F251448.85886246827
sa(dp18
g7
F10360872.7971864
sg10
F3007536.853458382
sg13
F251605.6084407972
sa(dp19
g7
F10390309.011643015
sg10
F3015182.362946167
sg13
F247025.77646429391
sa(dp20
g7
F10434233.941986915
sg10
F3019992.7928901594
sg13
F243980.0838711118
sa(dp21
g7
F10580732.577652272
sg10
F3021495.9755413188
sg13
F240763.2377762713
sa(dp22
g7
F10686591.38924144
sg10
F3056331.239291113
sg13
F239165.08623653153
sa(dp23
g7
F10572628.15736108
sg10
F3059784.6695568156
sg13
F241049.80802178028
saa(lp24
(dp25
a(dp26
((Vcitations
p27
Vlow
p28
tp29
tp30
F11320440.69579723
s((g27
Vmedium
p31
tp32
tp33
F2965051.618368009
s((g27
Vhigh
p34
tp35
tp36
F225422.72406283306
sa(dp37
g30
F10825899.184686022
sg33
F2995492.350412317
sg36
F212066.49774996002
sa(dp38
g30
F10568712.622817824
sg33
F3002118.2115921997
sg36
F236068.32174513987
sa(dp39
g30
F10471525.929065937
sg33
F3018241.8463468733
sg36
F227427.71975892276
sa(dp40
g30
F10613969.960461732
sg33
F3041053.083388323
sg36
F227121.35446138826
sa(dp41
g30
F10731757.601270514
sg33
F3042515.028420177
sg36
F227465.19767072526
sa(dp42
g30
F10801653.950148515
sg33
F3043891.9012849596
sg36
F225359.10607902144
sa(dp43
g30
F10862627.188273853
sg33
F3055422.0741988346
sg36
F228861.03650764748
sa(dp44
g30
F10835780.707872372
sg33
F3042551.725465053
sg36
F231614.35970189294
sa(dp45
g30
F10635634.015662154
sg33
F3068853.421256167
sg36
F240005.61667090355
sa(dp46
g30
F10678041.06283435
sg33
F3047844.228585417
sg36
F242212.77253058198
saa(lp47
(dp48
a(dp49
((Vcitations
p50
Vlow
p51
tp52
tp53
F10840623.78677161
s((g50
Vmedium
p54
tp55
tp56
F3007027.5103975674
s((g50
Vhigh
p57
tp58
tp59
F232936.1899736148
sa(dp60
g53
F10877860.175548589
sg56
F2977284.7527093594
sg59
F247981.34670846394
sa(dp61
g53
F10718109.439790964
sg56
F3021870.9800020787
sg59
F237041.6128984367
sa(dp62
g53
F10708906.215777833
sg56
F3045559.9635380595
sg59
F237947.1457360531
sa(dp63
g53
F10789865.420559403
sg56
F3054342.8095332314
sg59
F253698.02090116017
sa(dp64
g53
F10838779.632371629
sg56
F3059412.1339920145
sg59
F254774.1392704879
sa(dp65
g53
F10823187.408903912
sg56
F3054685.4974794784
sg59
F256897.93153709962
sa(dp66
g53
F10873181.041141044
sg56
F3058080.9384831605
sg59
F258888.6972247151
sa(dp67
g53
F10944610.880004356
sg56
F3048813.080791168
sg59
F257583.44474846064
sa(dp68
g53
F10685542.175660985
sg56
F3056290.9961444885
sg59
F250800.33498162273
sa(dp69
g53
F10763018.272158574
sg56
F3054675.248768366
sg59
F250990.91974514932
saa(lp70
(dp71
a(dp72
((Vcitations
p73
Vlow
p74
tp75
tp76
F10021753.551246537
s((g73
Vmedium
p77
tp78
tp79
F3165821.391475293
s((g73
Vhigh
p80
tp81
tp82
F235935.40952551158
sa(dp83
g76
F10136144.144759545
sg79
F3173052.031677211
sg82
F233782.73609697827
sa(dp84
g76
F10365415.481934637
sg79
F3098692.916255141
sg82
F235946.56108023645
sa(dp85
g76
F10386038.144253656
sg79
F3030757.185957687
sg82
F235764.5679364974
sa(dp86
g76
F10551301.173326178
sg79
F3042001.0576501633
sg82
F237258.73021154793
sa(dp87
g76
F10570619.073668528
sg79
F3040881.3932216014
sg82
F238829.9801266294
sa(dp88
g76
F10566843.248331757
sg79
F3038977.2918467005
sg82
F246731.6576074451
sa(dp89
g76
F10651725.087606587
sg79
F3033419.9418086414
sg82
F247669.70916654053
sa(dp90
g76
F10551294.69075885
sg79
F3066503.9759972454
sg82
F247385.08076783773
sa(dp91
g76
F10512859.517684283
sg79
F3058654.75098793
sg82
F247142.3856216463
sa(dp92
g76
F10518952.930574752
sg79
F3058449.6345830127
sg82
F244712.28799099356
saa(lp93
(dp94
a(dp95
((Vcitations
p96
Vlow
p97
tp98
tp99
F9656052.4998443
s((g96
Vmedium
p100
tp101
tp102
F3197428.2663819566
s((g96
Vhigh
p103
tp104
tp105
F273777.3730148138
sa(dp106
g99
F10052915.152234575
sg102
F3106140.706382602
sg105
F277862.7456260796
sa(dp107
g99
F10811124.152261749
sg102
F3125250.617492481
sg105
F267227.78989579855
sa(dp108
g99
F10969046.674040249
sg102
F3140300.2036760827
sg105
F259303.8033915418
sa(dp109
g99
F11025804.45669277
sg102
F3107669.6215425944
sg105
F253023.16548945074
sa(dp110
g99
F10956622.354889387
sg102
F3093531.557788487
sg105
F245432.31844571774
sa(dp111
g99
F10819367.174371326
sg102
F3089490.0254318495
sg105
F250911.82368632325
sa(dp112
g99
F10688647.826167444
sg102
F3065037.189962863
sg105
F254965.21226761185
sa(dp113
g99
F10669277.341199607
sg102
F3057492.813221113
sg105
F252645.95238739593
sa(dp114
g99
F10556912.29065536
sg102
F3056062.276946809
sg105
F244046.6925172478
sa(dp115
g99
F10635255.287279766
sg102
F3062940.331460462
sg105
F243338.50071694455
saa(lp116
(dp117
a(dp118
((Vcitations
p119
Vlow
p120
tp121
tp122
F11509195.499976616
s((g119
Vmedium
p123
tp124
tp125
F3080784.03292335
s((g119
Vhigh
p126
tp127
tp128
F204748.19735303745
sa(dp129
g122
F10713737.367733182
sg125
F3043315.7227812326
sg128
F227542.7791520633
sa(dp130
g122
F11266847.377179885
sg125
F3071633.8921023873
sg128
F241141.39038618418
sa(dp131
g122
F11162876.017989079
sg125
F3049315.2973245834
sg128
F235510.96728006974
sa(dp132
g122
F11045634.09657398
sg125
F3081806.8535071556
sg128
F238666.04486738725
sa(dp133
g122
F11045450.65824388
sg125
F3094673.776353635
sg128
F240932.0956718775
sa(dp134
g122
F10938188.086565223
sg125
F3093722.2693198076
sg128
F239922.27462608923
sa(dp135
g122
F10800392.982715433
sg125
F3078745.1821056567
sg128
F243187.71759852202
sa(dp136
g122
F10552792.8274698
sg125
F3053358.297870812
sg128
F240118.02762602072
sa(dp137
g122
F10478162.411640704
sg125
F3040090.351865085
sg128
F239346.20798199228
sa(dp138
g122
F10356640.409135744
sg125
F3047619.06470767
sg128
F240197.5199771091
saa(lp139
(dp140
a(dp141
((Vcitations
p142
Vlow
p143
tp144
tp145
F9393914.165346194
s((g142
Vmedium
p146
tp147
tp148
F3020181.5928349984
s((g142
Vhigh
p149
tp150
tp151
F218578.27764381675
sa(dp152
g145
F9886746.647551194
sg148
F3033372.183316214
sg151
F224722.44316716568
sa(dp153
g145
F10261808.502373042
sg148
F3122118.6563834837
sg151
F221455.44708115805
sa(dp154
g145
F10147958.792818505
sg148
F3101690.377813914
sg151
F233366.60998462373
sa(dp155
g145
F10428574.788890775
sg148
F3063743.8990265573
sg151
F232352.2738868876
sa(dp156
g145
F10467811.35256033
sg148
F3050426.585050029
sg151
F228470.2154208358
sa(dp157
g145
F10239264.69580648
sg148
F3036753.731708399
sg151
F229892.35411398622
sa(dp158
g145
F10259116.535509298
sg148
F3023141.910274771
sg151
F226584.43652511796
sa(dp159
g145
F10276903.755575372
sg148
F3039286.421478987
sg151
F227086.39177324975
sa(dp160
g145
F10382837.141908722
sg148
F3028407.5095351622
sg151
F234627.48257941526
sa(dp161
g145
F10509889.081580019
sg148
F3048433.8987376136
sg151
F237189.6501182371
saa(lp162
(dp163
a(dp164
((Vcitations
p165
Vlow
p166
tp167
tp168
F10313429.63026717
s((g165
Vmedium
p169
tp170
tp171
F3032865.443069751
s((g165
Vhigh
p172
tp173
tp174
F253172.71794871794
sa(dp175
g168
F10621733.54345265
sg171
F3091072.2816492976
sg174
F226612.49152695967
sa(dp176
g168
F10698160.13166549
sg171
F3031543.373507726
sg174
F225631.86761371314
sa(dp177
g168
F10661857.681308284
sg171
F3050857.754110916
sg174
F229724.9103932964
sa(dp178
g168
F10574813.008390678
sg171
F3059998.3800779777
sg174
F222380.26627378407
sa(dp179
g168
F10499526.415405612
sg171
F3071304.2022886453
sg174
F231906.82520209366
sa(dp180
g168
F10490246.706945771
sg171
F3049865.176553609
sg174
F239821.43914189853
sa(dp181
g168
F10454882.526901005
sg171
F3065276.456868723
sg174
F241682.16678622668
sa(dp182
g168
F10503299.458687363
sg171
F3049420.481665246
sg174
F245304.15848548742
sa(dp183
g168
F10478416.04504954
sg171
F3040617.8922418905
sg174
F247682.2169173025
sa(dp184
g168
F10419984.960511984
sg171
F3031844.7667039274
sg174
F246582.40779403519
saa(lp185
(dp186
a(dp187
((Vcitations
p188
Vlow
p189
tp190
tp191
F9284914.510577807
s((g188
Vmedium
p192
tp193
tp194
F3073586.0095325694
s((g188
Vhigh
p195
tp196
tp197
F268961.84497031523
sa(dp198
g191
F9410654.37979815
sg194
F3016051.745112115
sg197
F272659.2008783413
sa(dp199
g191
F9781960.581731044
sg194
F2975120.7987676156
sg197
F266660.69355850975
sa(dp200
g191
F9953836.153225457
sg194
F2978672.4799791765
sg197
F262851.4622359117
sa(dp201
g191
F9736136.691991733
sg194
F3004945.489549735
sg197
F259960.58628710773
sa(dp202
g191
F9659256.740421621
sg194
F2986954.1870296975
sg197
F247249.58860359585
sa(dp203
g191
F9852291.092157373
sg194
F2999121.558444138
sg197
F243054.30687673035
sa(dp204
g191
F9978196.181917474
sg194
F2988689.096223159
sg197
F241386.94615435024
sa(dp205
g191
F10271065.74841142
sg194
F3022212.433226543
sg197
F241001.8575145583
sa(dp206
g191
F10288808.813573768
sg194
F3048057.219543812
sg197
F240225.51804597396
sa(dp207
g191
F10383925.227330467
sg194
F3040495.88269941
sg197
F240639.42296091345
saa(lp208
(dp209
a(dp210
((Vcitations
p211
Vlow
p212
tp213
tp214
F11031740.176332397
s((g211
Vmedium
p215
tp216
tp217
F3107506.066608319
s((g211
Vhigh
p218
tp219
tp220
F202369.1423833433
sa(dp221
g214
F10373241.246943329
sg217
F3021367.881124498
sg220
F235096.357340473
sa(dp222
g214
F10258012.254433056
sg217
F3024767.8708017212
sg220
F230546.8553766065
sa(dp223
g214
F10118609.528504035
sg217
F3052193.286186676
sg220
F234899.33353908558
sa(dp224
g214
F9931393.231135586
sg217
F3062763.9147982458
sg220
F230791.64007248977
sa(dp225
g214
F10150868.941586027
sg217
F3052600.460231296
sg220
F236034.64125560538
sa(dp226
g214
F10102434.783381067
sg217
F3060052.595667369
sg220
F237213.8907631941
sa(dp227
g214
F10324403.830743698
sg217
F3064714.6226484445
sg220
F245038.9884719484
sa(dp228
g214
F10380044.692858484
sg217
F3071444.0811320585
sg220
F249296.726720123
sa(dp229
g214
F10463707.47311616
sg217
F3071484.2483819495
sg220
F246971.2200369328
sa(dp230
g214
F10533953.507719334
sg217
F3063607.0397309954
sg220
F245969.58347748147
saa.