(lp0
(lp1
F5.793571472167969e-05
aF3.5808849334716797
aF7.157533168792725
aF10.777275085449219
aF14.365646123886108
aF17.93730616569519
aF21.539592027664185
aF25.137657165527344
aF28.71912693977356
aa(lp2
F6.008148193359375e-05
aF3.596679925918579
aF7.212337970733643
aF10.811105012893677
aF14.418097972869873
aF18.039133071899414
aF21.7149920463562
aF25.336742877960205
aF28.96375799179077
aa(lp3
F5.3882598876953125e-05
aF3.6701200008392334
aF7.343087911605835
aF11.011136054992676
aF14.677536964416504
aF18.32514500617981
aF22.016644954681396
aF25.657392024993896
aF29.358085870742798
aa(lp4
F6.198883056640625e-05
aF3.660438060760498
aF7.334634065628052
aF10.978826999664307
aF14.633872032165527
aF18.26290798187256
aF21.868242979049683
aF25.508538007736206
aF29.16270899772644
aa(lp5
F5.602836608886719e-05
aF3.6600468158721924
aF7.344674825668335
aF11.011732816696167
aF14.699241876602173
aF18.364117860794067
aF22.030838012695312
aF25.703434944152832
aF29.364562034606934
aa(lp6
F6.4849853515625e-05
aF3.6645069122314453
aF7.313400030136108
aF10.998412847518921
aF14.641232967376709
aF18.30121088027954
aF21.971643924713135
aF25.657347917556763
aF29.32776188850403
aa(lp7
F6.103515625e-05
aF3.652308940887451
aF7.31977391242981
aF11.024215936660767
aF14.669615030288696
aF18.32620096206665
aF22.023433923721313
aF25.679653882980347
aF29.33087992668152
aa(lp8
F5.4836273193359375e-05
aF3.6542680263519287
aF7.308624029159546
aF10.990036010742188
aF14.667311906814575
aF18.34204387664795
aF21.995373010635376
aF25.631213903427124
aF29.314679861068726
aa(lp9
F6.198883056640625e-05
aF3.6927590370178223
aF7.372854948043823
aF11.065212965011597
aF14.734562873840332
aF18.400389909744263
aF22.103185892105103
aF25.826483964920044
aF29.516209840774536
aa(lp10
F5.91278076171875e-05
aF3.6716020107269287
aF7.325034141540527
aF10.9812650680542
aF14.614500999450684
aF18.285068035125732
aF21.94187593460083
aF25.6118221282959
aF29.262176990509033
aa.