(lp0
(lp1
F4.601478576660156e-05
aF14.355281829833984
aF28.691733837127686
aF43.09700584411621
aF57.56528282165527
aF71.84943079948425
aF86.19791793823242
aF100.46651291847229
aF114.79938197135925
aa(lp2
F5.602836608886719e-05
aF14.539110898971558
aF29.018353939056396
aF43.629772901535034
aF58.072608947753906
aF72.75292992591858
aF87.26275897026062
aF101.83610510826111
aF116.3040680885315
aa(lp3
F4.506111145019531e-05
aF14.402415037155151
aF28.884593963623047
aF43.63591909408569
aF58.5812029838562
aF73.25775694847107
aF87.81023597717285
aF102.25828003883362
aF116.6798300743103
aa(lp4
F5.1021575927734375e-05
aF14.407004117965698
aF28.90035605430603
aF43.37170600891113
aF57.8107590675354
aF72.37204098701477
aF86.75430011749268
aF101.17218899726868
aF115.61426210403442
aa(lp5
F5.2928924560546875e-05
aF14.40308403968811
aF28.954050064086914
aF43.44154405593872
aF57.861494064331055
aF72.27767205238342
aF86.72591400146484
aF101.18160605430603
aF115.63772296905518
aa(lp6
F5.1975250244140625e-05
aF14.4079430103302
aF29.001438856124878
aF43.44758701324463
aF58.049216985702515
aF72.59143996238708
aF86.96949100494385
aF101.31393599510193
aF115.65884780883789
aa(lp7
F5.1021575927734375e-05
aF14.5522301197052
aF29.024614095687866
aF43.479565143585205
aF58.04145812988281
aF72.519700050354
aF86.86492204666138
aF101.30185413360596
aF115.68320798873901
aa(lp8
F5.1975250244140625e-05
aF14.46109390258789
aF29.14077401161194
aF43.52210307121277
aF58.028045892715454
aF72.26997494697571
aF86.68894696235657
aF101.00627493858337
aF115.5521810054779
aa(lp9
F5.1021575927734375e-05
aF14.447520017623901
aF28.973193168640137
aF43.45881700515747
aF57.99306511878967
aF72.35539317131042
aF86.82939314842224
aF101.25566816329956
aF115.66444516181946
aa(lp10
F5.1021575927734375e-05
aF14.292049169540405
aF28.763319969177246
aF43.19276309013367
aF57.69533610343933
aF72.10985898971558
aF86.48203706741333
aF101.06499004364014
aF115.5077440738678
aa.