(lp0
(lp1
(dp2
a(dp3
((Vcitations
p4
Vlow
p5
tp6
(Vcitations
p7
Vhigh
p8
tp9
tp10
F251.3808008485813
s((g4
Vmedium
p11
tp12
(g7
Vmedium
p13
tp14
tp15
F1288.0485282418456
s((g4
Vhigh
p16
tp17
(g7
Vmedium
p18
tp19
tp20
F149.04879342349508
s((g4
Vmedium
p21
tp22
(g7
Vhigh
p23
tp24
tp25
F280.30071599045345
s((g4
Vhigh
p26
tp27
(g7
Vhigh
p28
tp29
tp30
F113.45505171042164
s((g4
Vmedium
p31
tp32
(g7
Vlow
p33
tp34
tp35
F266.95306284805093
s((g4
Vhigh
p36
tp37
(g7
Vlow
p38
tp39
tp40
F4.449217714134182
s((g4
Vlow
p41
tp42
(g7
Vmedium
p43
tp44
tp45
F416.001856271546
s((g4
Vlow
p46
tp47
(g7
Vlow
p48
tp49
tp50
F278.07610713338636
sa(dp51
g10
F133.1320930852837
sg15
F1170.2199106487965
sg20
F448.62159098486364
sg25
F176.7636193905448
sg30
F68.24418216976729
sg35
F327.79582583183304
sg40
F3.35627125425085
sg45
F441.90904847636193
sg50
F430.7214776288591
sa(dp52
g10
F96.01038016235638
sg15
F1241.4365434946546
sg20
F393.71698531694983
sg25
F148.10903606441025
sg30
F93.77758062369693
sg35
F334.9199307989176
sg40
F11.908264206183738
sg45
F340.129796389123
sg50
F354.2708601339662
sa(dp53
g10
F75.6068495894252
sg15
F1238.8322317911743
sg20
F330.4299352426731
sg25
F149.53354696575207
sg30
F98.00887909740302
sg35
F351.1518125375526
sg40
F26.882435409573404
sg45
F352.8319647506509
sg50
F367.3932839308365
sa(dp54
g10
F65.26390621437099
sg15
F1474.5141845398575
sg20
F292.5623382023527
sg25
F164.7351012031709
sg30
F82.81764650651215
sg35
F636.4356095663487
sg40
F37.357960108915805
sg45
F320.4682843078079
sg50
F371.32912156452454
sa(dp55
g10
F68.69921464211397
sg15
F1351.8353657172265
sg20
F314.2144407401606
sg25
F174.56357818897814
sg30
F77.33354216543978
sg35
F640.4418589040789
sg40
F31.90947128185622
sg45
F321.3471460855167
sg50
F366.39581142460787
sa(dp56
g10
F61.936436523043206
sg15
F1343.8916383072813
sg20
F292.9077310568918
sg25
F167.74451558324202
sg30
F80.0012305089308
sg35
F619.6869508373229
sg40
F33.87148872353925
sg45
F322.58560689085
sg50
F436.1357405164292
sa(dp57
g10
F55.935612597974426
sg15
F1371.8350241200192
sg20
F273.7454980173597
sg25
F241.82264840336418
sg30
F81.64339414552832
sg35
F585.3464106212273
sg40
F33.052861989712156
sg45
F335.61367558784656
sg50
F432.22973371162055
saa(lp58
(dp59
a(dp60
((Vcitations
p61
Vlow
p62
tp63
(Vcitations
p64
Vhigh
p65
tp66
tp67
F22.69904620171819
s((g61
Vmedium
p68
tp69
(g64
Vmedium
p70
tp71
tp72
F821.7054725021985
s((g61
Vhigh
p73
tp74
(g64
Vmedium
p75
tp76
tp77
F776.3073800987621
s((g61
Vmedium
p78
tp79
(g64
Vhigh
p80
tp81
tp82
F978.328891294054
s((g61
Vhigh
p83
tp84
(g64
Vhigh
p85
tp86
tp87
F18.159236961374553
s((g61
Vmedium
p88
tp89
(g64
Vlow
p90
tp91
tp92
F310.9769329635392
s((g61
Vhigh
p93
tp94
(g64
Vlow
p95
tp96
tp97
F2.269904620171819
s((g61
Vlow
p98
tp99
(g64
Vmedium
p100
tp101
tp102
F864.833660285463
s((g61
Vlow
p103
tp104
(g64
Vlow
p105
tp106
tp107
F310.9769329635392
sa(dp108
g67
F22.762176095509428
sg72
F862.6864740198074
sg77
F500.76787410120744
sg82
F656.688780355447
sg87
F38.69569936236603
sg92
F385.81888481888484
sg97
F28.452720119386786
sg102
F546.2922262922262
sg107
F347.1231854565188
sa(dp109
g67
F26.593152794130965
sg72
F898.8485644416266
sg77
F403.4561181052441
sg82
F535.6620777103524
sg87
F25.83334842858437
sg92
F434.60809709265465
sg97
F33.43139208405036
sg102
F473.3581197355312
sg107
F363.18648673127433
sa(dp110
g67
F23.319366758195194
sg72
F923.6744296416828
sg77
F422.0236618190447
sg82
F419.74860164751345
sg87
F27.86948710125767
sg92
F468.0936302925523
sg97
F43.794908301976335
sg102
F462.4059798637242
sg107
F331.590020000678
sa(dp111
g67
F21.406319561322547
sg72
F1025.2260709050438
sg77
F431.31456648026494
sg82
F403.9873500190021
sg87
F32.33720614582768
sg92
F472.3053911721592
sg97
F35.06992779195396
sg102
F424.4827623649492
sg107
F327.0156903197785
sa(dp112
g67
F27.688972283763622
sg72
F1023.7333725188769
sg77
F385.36980603155945
sg82
F389.16281593344485
sg87
F37.93009901885428
sg92
F454.78188723606274
sg97
F29.585477234706335
sg102
F406.9899624723064
sg107
F347.4397070127052
sa(dp113
g67
F25.018271251101407
sg72
F1012.752616749131
sg77
F368.1259912662064
sg82
F358.70352547033707
sg87
F70.1811245485442
sg92
F430.83412570078525
sg97
F29.567047842210755
sg102
F385.99618501699314
sg107
F349.93088490176905
sa(dp114
g67
F23.563211194680157
sg72
F1057.221668542035
sg77
F348.6219680369546
sg82
F328.4654861716258
sg87
F76.9353040211846
sg92
F393.1933434293014
sg97
F25.83436408091439
sg102
F386.3798847705987
sg107
F363.9522500190357
saa(lp115
(dp116
a(dp117
((Vcitations
p118
Vlow
p119
tp120
(Vcitations
p121
Vhigh
p122
tp123
tp124
F45.404235166768146
s((g118
Vmedium
p125
tp126
(g121
Vmedium
p127
tp128
tp129
F701.4954333265679
s((g118
Vhigh
p130
tp131
(g121
Vmedium
p132
tp133
tp134
F131.67228198362764
s((g118
Vhigh
p135
tp136
(g121
Vlow
p137
tp138
tp139
F45.404235166768146
s((g118
Vhigh
p140
tp141
(g121
Vhigh
p142
tp143
tp144
F72.64677626682904
s((g118
Vmedium
p145
tp146
(g121
Vlow
p147
tp148
tp149
F177.07651715039577
s((g118
Vmedium
p150
tp151
(g121
Vhigh
p152
tp153
tp154
F172.53609363371896
s((g118
Vlow
p155
tp156
(g121
Vmedium
p157
tp158
tp159
F220.21054055882553
s((g118
Vlow
p160
tp161
(g121
Vlow
p162
tp163
tp164
F515.3380691428184
sa(dp165
g124
F22.64390309737499
sg129
F887.6410014170997
sg134
F263.80147108441867
sg139
F23.77609825224374
sg144
F41.891220730143736
sg149
F204.92732303124367
sg154
F198.13415210203118
sg159
F343.05513192523114
sg164
F487.9761117484311
sa(dp166
g124
F85.35347214406303
sg129
F1043.8805177265053
sg134
F231.13418120427687
sg139
F24.926235227912212
sg144
F89.13017445132246
sg149
F216.02737197523916
sg154
F147.29138998311763
sg159
F392.02169949352844
sg164
F455.4702982554868
sa(dp167
g124
F69.55959282728867
sg129
F1055.8354455979506
sg134
F209.8098287717406
sg139
F19.793380072805718
sg144
F73.5182688418498
sg149
F417.35755696373195
sg154
F150.42968855332344
sg159
F403.2194283402993
sg164
F426.4059592827289
sa(dp168
g124
F60.0916667788714
sg129
F1031.9501272401676
sg134
F217.3239978995274
sg139
F27.560839650459815
sg144
F71.83890990857559
sg149
F412.96077771344704
sg154
F232.2339603333827
sg159
F361.9054518035789
sg164
F440.0698003204567
sa(dp169
g124
F49.96527132477245
sg129
F1209.6855162839645
sg134
F274.99683165213105
sg139
F30.429977272981716
sg144
F69.12488664479798
sg149
F421.51153704056156
sg154
F231.79377749913235
sg159
F371.17058698402394
sg164
F417.0033922593791
sa(dp170
g124
F49.90673396150377
sg129
F1268.5969794085474
sg134
F261.12491124373906
sg139
F27.690187875414995
sg144
F72.76723790516034
sg149
F406.3374081252759
sg154
F248.56773302116716
sg159
F352.8889059471492
sg164
F402.795639908653
sa(dp171
g124
F47.9121802086308
sg129
F1324.6308645915574
sg134
F243.50661000151183
sg139
F24.237926458483816
sg144
F76.37765197964086
sg149
F402.18047739833025
sg154
F256.18924593909054
sg159
F329.74853437704724
sg164
F412.8902588567301
saa(lp172
(dp173
a(dp174
((Vcitations
p175
Vlow
p176
tp177
(Vcitations
p178
Vhigh
p179
tp180
tp181
F22.705189796332633
s((g175
Vmedium
p182
tp183
(g178
Vmedium
p184
tp185
tp186
F1296.4663373705935
s((g175
Vhigh
p187
tp188
(g178
Vmedium
p189
tp190
tp191
F179.37099939102782
s((g175
Vmedium
p192
tp193
(g178
Vhigh
p194
tp195
tp196
F143.0426957168956
s((g175
Vhigh
p197
tp198
(g178
Vhigh
p199
tp200
tp201
F120.33750592056296
s((g175
Vmedium
p202
tp203
(g178
Vlow
p204
tp205
tp206
F392.7997834765546
s((g175
Vhigh
p207
tp208
(g178
Vlow
p209
tp210
tp211
F174.8299614317613
s((g175
Vlow
p212
tp213
(g178
Vmedium
p214
tp215
tp216
F481.35002368225184
s((g175
Vlow
p217
tp218
(g178
Vlow
p219
tp220
tp221
F279.2738344948914
sa(dp222
g181
F24.955445879250895
sg186
F1270.459062943682
sg191
F142.92664458116423
sg196
F124.77722939625448
sg201
F162.21039821513082
sg206
F385.675072679332
sg211
F100.95612196606044
sg216
F380.00338043404776
sg221
F342.5702116151714
sa(dp223
g181
F16.605528938074993
sg186
F1322.4039408866995
sg191
F136.61821535416246
sg196
F159.26211845153745
sg201
F123.03187349573746
sg206
F490.6179004431248
sg211
F71.70569314168748
sg216
F681.5814832309873
sg221
F375.88879141642485
sa(dp224
g181
F18.061494987552983
sg186
F1416.6985130861872
sg191
F126.43046491287089
sg196
F145.62080333714593
sg201
F95.3872704030142
sg206
F422.187445334051
sg211
F66.03734104824059
sg216
F594.9004911525265
sg221
F331.31554867792505
sa(dp225
g181
F27.56046856065706
sg186
F1396.9994883533054
sg191
F126.05525784300525
sg196
F153.16391544365155
sg201
F89.45857008213275
sg206
F364.6114447286926
sg211
F56.47637000134644
sg216
F594.1314124141645
sg221
F404.3708092096405
sa(dp226
g181
F24.49783228878855
sg186
F1308.9380236763484
sg191
F134.1727429970573
sg196
F129.27317653929958
sg201
F79.52373250668283
sg206
F469.98149021722037
sg211
F60.30235640317182
sg216
F536.3140822607094
sg221
F409.30224408652873
sa(dp227
g181
F22.321279487896344
sg186
F1285.5762997811605
sg191
F124.22277280220575
sg196
F134.2511737315505
sg201
F76.66874258886136
sg206
F445.4550993454097
sg211
F57.582431142689124
sg216
F509.8309633757194
sg221
F410.1939476906169
sa(dp228
g181
F20.11427896021005
sg186
F1271.732369751872
sg191
F134.28405953717697
sg196
F234.57215463456228
sg201
F84.1400119884843
sg206
F436.84814305132255
sg211
F53.826943696336755
sg216
F496.05778111729296
sg221
F445.06383445760554
saa(lp229
(dp230
a(dp231
((Vcitations
p232
Vlow
p233
tp234
(Vcitations
p235
Vhigh
p236
tp237
tp238
F33.665975520032106
s((g232
Vmedium
p239
tp240
(g235
Vmedium
p241
tp242
tp243
F1050.3784362250017
s((g232
Vhigh
p244
tp245
(g235
Vmedium
p246
tp247
tp248
F168.32987760016053
s((g232
Vmedium
p249
tp250
(g235
Vhigh
p251
tp252
tp253
F781.0506320647448
s((g232
Vhigh
p254
tp255
(g235
Vhigh
p256
tp257
tp258
F33.665975520032106
s((g232
Vmedium
p259
tp260
(g235
Vlow
p261
tp262
tp263
F2031.180523041937
s((g232
Vhigh
p264
tp265
(g235
Vlow
p266
tp267
tp268
F74.06514614407062
s((g232
Vlow
p269
tp270
(g235
Vmedium
p271
tp272
tp273
F466.8348605444452
s((g232
Vlow
p274
tp275
(g235
Vlow
p276
tp277
tp278
F361.3481372483446
sa(dp279
g238
F28.04372534599184
sg243
F990.5043792204319
sg248
F152.5578658821956
sg253
F735.867353078826
sg258
F32.53072140135054
sg263
F1211.4889349468476
sg268
F45.991709567426625
sg273
F536.1960286153641
sg278
F395.97740188540484
sa(dp280
g238
F33.65697091273822
sg243
F1118.1593669898584
sg248
F268.507834614956
sg253
F548.234659534158
sg258
F50.859422712582194
sg263
F850.3994650618522
sg268
F55.34701883428062
sg273
F415.85057394405436
sg278
F456.98687172628996
sa(dp281
g238
F29.71989104460153
sg243
F1115.3370431643857
sg248
F348.7881552781538
sg253
F433.4618071222072
sg258
F122.80483280693839
sg263
F757.0160926455106
sg268
F58.31827676676526
sg273
F400.3774001102923
sg278
F412.1532059958891
sa(dp282
g238
F28.296074205940222
sg243
F1110.7331985919075
sg248
F310.3585281953126
sg253
F368.2981087122378
sg258
F114.53172892880566
sg263
F728.511624794207
sg268
F59.73615665698492
sg273
F461.27092396032714
sg278
F403.78048747841683
sa(dp283
g238
F63.23625374948427
sg243
F1106.073172091571
sg248
F294.85306482008053
sg253
F315.80708973115225
sg258
F100.2799763601289
sg263
F706.0758036998628
sg268
F56.501031456639794
sg273
F421.6997513353182
sg278
F398.8748313429008
sa(dp284
g238
F60.35136324500144
sg243
F1090.4977709748398
sg248
F284.7428680761504
sg253
F316.2026212570554
sg258
F99.83656366593323
sg263
F646.5300296565579
sg268
F55.21507701138429
sg273
F418.28631015019613
sg278
F388.75266430689754
sa(dp285
g238
F87.02354958798678
sg243
F1095.3738402978208
sg248
F266.68507131802403
sg253
F288.30059815116914
sg258
F89.55003973731543
sg263
F697.8727234701133
sg268
F48.284033964947504
sg273
F441.29361274940396
sg278
F371.6747730790145
saa(lp286
(dp287
a(dp288
((Vcitations
p289
Vmedium
p290
tp291
(Vcitations
p292
Vmedium
p293
tp294
tp295
F1002.2106820933674
s((g289
Vhigh
p296
tp297
(g292
Vmedium
p298
tp299
tp300
F523.6776537064443
s((g289
Vmedium
p301
tp302
(g292
Vhigh
p303
tp304
tp305
F322.78407103457556
s((g289
Vhigh
p306
tp307
(g292
Vhigh
p308
tp309
tp310
F69.97416924525764
s((g289
Vhigh
p311
tp312
(g292
Vlow
p313
tp314
tp315
F11.286156329880264
s((g289
Vlow
p316
tp317
(g292
Vmedium
p318
tp319
tp320
F255.06713305529397
s((g289
Vlow
p321
tp322
(g292
Vlow
p323
tp324
tp325
F419.8450154715458
s((g289
Vmedium
p326
tp327
(g292
Vlow
p328
tp329
tp330
F158.0061886183237
sa(dp331
((g289
Vlow
p332
tp333
(g292
Vhigh
p334
tp335
tp336
F11.296414744992425
sg295
F1346.532637603097
sg300
F351.3184985692644
sg315
F25.981753913482578
sg310
F94.88988385793637
sg305
F202.2058239353644
sg320
F291.4475004208046
sg325
F361.4852718397576
sg330
F272.24359535431745
sa(dp337
g336
F15.087790292484431
sg295
F1154.9703468896832
sg300
F244.4222027382478
sg315
F20.368516894853983
sg310
F99.57941593039725
sg305
F204.43955846316405
sg320
F445.844203142915
sg325
F314.5804275983004
sg330
F326.65065983228794
sa(dp338
g336
F16.926672607737967
sg295
F1122.238393893027
sg300
F236.40919408807358
sg315
F25.390008911606948
sg310
F76.73424915507877
sg305
F230.76696988549426
sg320
F415.83192373009604
sg325
F326.68478132934274
sg330
F374.07946463100905
sa(dp339
g336
F19.856155356518464
sg295
F1089.8321633180021
sg300
F206.2332499529304
sg315
F24.82019419564808
sg310
F83.93738400710079
sg305
F317.6984857042954
sg320
F406.14863229242314
sg325
F345.22633744855966
sg330
F410.6613948734501
sa(dp340
g336
F20.332862048071096
sg295
F1043.0005161695728
sg300
F227.05029287012724
sg315
F47.06681029646087
sg310
F79.44877578042595
sg305
F282.7773962611369
sg320
F395.36120649027134
sg325
F359.59043066496105
sg330
F383.31210305437736
sa(dp341
g336
F21.325501675461233
sg295
F1011.0226476139121
sg300
F234.25740476832416
sg315
F53.959981512151906
sg310
F81.7477564226014
sg305
F256.5522474290336
sg320
F367.70334707083157
sg325
F336.36132188113857
sg330
F374.1656203058198
sa(dp342
g336
F22.072220067126544
sg295
F1086.3493953551128
sg300
F237.9838086724798
sg315
F58.576276331989675
sg310
F80.08254203842067
sg305
F232.89021942621983
sg320
F370.70010625558683
sg325
F320.3301681536827
sg330
F383.151102190889
saa(lp343
(dp344
a(dp345
((Vcitations
p346
Vlow
p347
tp348
(Vcitations
p349
Vhigh
p350
tp351
tp352
F29.271153459035094
s((g346
Vmedium
p353
tp354
(g349
Vmedium
p355
tp356
tp357
F1377.9958397638059
s((g346
Vhigh
p358
tp359
(g349
Vmedium
p360
tp361
tp362
F220.65946453734148
s((g346
Vmedium
p363
tp364
(g349
Vhigh
p365
tp366
tp367
F83.31020599879218
s((g346
Vhigh
p368
tp369
(g349
Vhigh
p370
tp371
tp372
F166.62041199758437
s((g346
Vmedium
p373
tp374
(g349
Vlow
p375
tp376
tp377
F191.38831107830637
s((g346
Vhigh
p378
tp379
(g349
Vlow
p380
tp381
tp382
F60.79393410722673
s((g346
Vlow
p383
tp384
(g349
Vmedium
p385
tp386
tp387
F574.1649332349191
s((g346
Vlow
p388
tp389
(g349
Vlow
p390
tp391
tp392
F481.84821847950076
sa(dp393
g352
F25.985253021783777
sg357
F1173.8555604188412
sg362
F198.84367529712804
sg367
F345.7168445506885
sg372
F123.14750345106225
sg377
F293.746338507121
sg382
F40.67256994713983
sg387
F480.16228409817853
sg392
F453.04723746675194
sa(dp394
g352
F28.67969681293718
sg357
F1354.7383099795327
sg362
F190.94640246508175
sg367
F381.8928049301635
sg372
F91.32219248329997
sg377
F264.90983108791977
sg382
F46.03846067339916
sg387
F458.1204201434966
sg392
F409.81777287960233
sa(dp395
g352
F24.88939835808567
sg357
F1264.2683029618515
sg362
F174.79145665110164
sg367
F437.26147570000506
sg372
F77.49653579676675
sg377
F240.4089614133275
sg382
F57.698150739198596
sg387
F450.2718430235498
sg392
F445.7464978675343
sa(dp396
g352
F19.850549214159912
sg357
F1272.2397450893397
sg362
F173.24115677812287
sg367
F471.45054383629787
sg372
F69.47692224955969
sg377
F232.79280442060258
sg382
F46.468331114965245
sg387
F440.32127347772894
sg392
F449.7953992390325
sa(dp397
g352
F56.358750419885794
sg357
F1295.875534654574
sg362
F160.05885119247566
sg367
F482.05517859142316
sg372
F68.75767551226066
sg377
F299.07710222819395
sg382
F45.83845034150711
sg387
F409.54025305117005
sg392
F434.7138282387191
sa(dp398
g352
F52.326778133933985
sg357
F1207.0689499167365
sg362
F200.90898765004283
sg367
F456.082782253795
sg372
F65.56997506906542
sg377
F291.0273277695958
sg382
F51.35776372404632
sg387
F443.16259012195945
sg392
F443.4855949252553
sa(dp399
g352
F48.07692955989684
sg357
F1210.6902085054023
sg362
F225.67876346351576
sg367
F414.5928160871104
sg372
F65.89367404385861
sg377
F318.15615149931733
sg382
F53.733038919884706
sg387
F425.62222933908674
sg392
F444.8530011630455
saa(lp400
(dp401
a(dp402
((Vcitations
p403
Vlow
p404
tp405
(Vcitations
p406
Vhigh
p407
tp408
tp409
F17.843004320372216
s((g403
Vmedium
p410
tp411
(g406
Vmedium
p412
tp413
tp414
F1195.4812894649385
s((g403
Vhigh
p415
tp416
(g406
Vmedium
p417
tp418
tp419
F1819.9864406779661
s((g403
Vmedium
p420
tp421
(g406
Vhigh
p422
tp423
tp424
F240.88055832502494
s((g403
Vhigh
p425
tp426
(g406
Vhigh
p427
tp428
tp429
F44.60751080093054
s((g403
Vmedium
p430
tp431
(g406
Vlow
p432
tp433
tp434
F1012.5904951811233
s((g403
Vhigh
p435
tp436
(g406
Vlow
p437
tp438
tp439
F62.45051512130276
s((g403
Vlow
p440
tp441
(g406
Vmedium
p442
tp443
tp444
F310.0222000664673
s((g403
Vlow
p445
tp446
(g406
Vlow
p447
tp448
tp449
F354.6297108673978
sa(dp450
g409
F136.81221802626743
sg414
F1039.5485746749991
sg419
F1153.932560237944
sg424
F196.24703405407212
sg429
F32.52093707181766
sg434
F685.1825017545033
sg439
F105.41269257761589
sg444
F385.7655983691475
sg449
F379.03712863015073
sa(dp451
g409
F93.43087459301672
sg414
F1107.6079488043113
sg419
F876.2911867070843
sg424
F209.46599303918268
sg429
F27.12509262377905
sg434
F554.5574491972606
sg439
F77.60790389581229
sg444
F353.3796789042326
sg449
F328.5150106657685
sa(dp452
g409
F76.855723403897
sg414
F1109.887064450395
sg419
F698.4828979942404
sg424
F182.5323430842554
sg429
F46.33948028764378
sg434
F488.82500547331546
sg439
F75.16037656410515
sg444
F397.8413917378198
sg449
F384.8437326327489
sa(dp453
g409
F65.98750067345509
sg414
F1156.5891385162438
sg419
F607.4465815419428
sg424
F249.93895803027854
sg429
F60.56387048111632
sg434
F474.1156726469479
sg439
F60.56387048111632
sg444
F367.45094553095197
sg449
F369.7107914444265
sa(dp454
g409
F55.72647807987074
sg414
F1251.586575253313
sg419
F600.9422906450925
sg424
F236.4610015821542
sg429
F74.92952120198835
sg434
F494.76075808750096
sg439
F52.33770576420292
sg444
F394.60370964665225
sg449
F339.63029208137436
sa(dp455
g409
F49.719288793103445
sg414
F1301.0956742610838
sg419
F565.3147706280788
sg424
F271.1961206896552
sg429
F77.8074584359606
sg434
F554.9834898399015
sg439
F56.499191810344826
sg444
F381.93453663793105
sg449
F339.64085591133005
sa(dp456
g409
F45.19478770328967
sg414
F1255.8501633051617
sg419
F537.253038822856
sg424
F288.39923903161724
sg429
F73.15906259470016
sg434
F525.106939627597
sg439
F61.012963399441055
sg444
F395.45439240378465
sg449
F367.7725849355197
saa(lp457
(dp458
a(dp459
((Vcitations
p460
Vlow
p461
tp462
(Vcitations
p463
Vhigh
p464
tp465
tp466
F35.81455539990661
s((g460
Vmedium
p467
tp468
(g463
Vmedium
p469
tp470
tp471
F893.1254752851711
s((g460
Vhigh
p472
tp473
(g463
Vmedium
p474
tp475
tp476
F199.21846441198053
s((g460
g474
tp477
(g463
g472
tp478
tp479
F143.25822159962644
s((g460
Vhigh
p480
tp481
(g463
Vhigh
p482
tp483
tp484
F33.57614568741245
s((g460
Vmedium
p485
tp486
(g463
Vlow
p487
tp488
tp489
F176.8343672870389
s((g460
Vhigh
p490
tp491
(g463
Vlow
p492
tp493
tp494
F94.01320792475485
s((g460
Vlow
p495
tp496
(g463
Vmedium
p497
tp498
tp499
F340.2382762991128
s((g460
Vlow
p500
tp501
(g463
Vlow
p502
tp503
tp504
F467.8276299112801
sa(dp505
g466
F20.381575839379114
sg471
F871.8785220178843
sg476
F168.71415555930488
sg479
F244.57891007254935
sg484
F81.52630335751645
sg489
F295.5328496709971
sg494
F120.02483549856588
sg499
F383.85301164163997
sg504
F468.7762443057196
sa(dp506
g466
F24.079833157670485
sg471
F978.2432220303635
sg476
F188.87619133047787
sg479
F204.67858184019914
sg484
F75.24947861772027
sg489
F333.3551902765008
sg494
F89.54687955508712
sg499
F447.7343977754356
sg504
F411.6146480389299
sa(dp507
g466
F23.598144768347204
sg471
F981.5704502452992
sg476
F200.02236994122867
sg479
F237.6670294526397
sg484
F70.23257371531906
sg489
F470.83917418749894
sg494
F83.71722786866032
sg499
F420.8335817021918
sg504
F400.6066004721799
sa(dp508
g466
F64.74867342016401
sg471
F1090.8352897035966
sg476
F176.2602776437798
sg479
F205.48710939593718
sg484
F66.99689124725305
sg489
F441.1003376748673
sg494
F66.99689124725305
sg499
F398.3841989601758
sg504
F412.77279305354557
sa(dp509
g466
F55.517165055055614
sg471
F1063.4538035883963
sg476
F193.18472975238947
sg479
F236.3230674640881
sg484
F57.39274495556425
sg489
F417.1289698731206
sg494
F57.76786093566598
sg499
F399.4985188083394
sg504
F441.1363925996311
sa(dp510
g466
F48.958178554630884
sg471
F1075.7915550820207
sg476
F189.39084861922998
sg479
F246.72345245294247
sg484
F58.62097695357119
sg489
F387.1561225175416
sg494
F55.722137433889095
sg499
F381.03635019821274
sg504
F432.57127499256103
sa(dp511
g466
F43.37838813387169
sg471
F1112.9091656943313
sg476
F177.4570423658387
sg479
F229.28576585046463
sg484
F78.024763071964
sg489
F369.56133267298475
sg494
F50.138656414475065
sg499
F432.6571699586163
sg504
F444.7693172946974
saa(lp512
(dp513
a(dp514
((Vcitations
p515
Vlow
p516
tp517
(Vcitations
p518
Vhigh
p519
tp520
tp521
F4.530003374957813
s((g515
Vmedium
p522
tp523
(g518
Vmedium
p524
tp525
tp526
F1800.6763415457306
s((g515
Vhigh
p527
tp528
(g518
Vmedium
p529
tp530
tp531
F67.9500506243672
s((g515
Vmedium
p532
tp533
(g518
Vhigh
p534
tp535
tp536
F77.01005737428282
s((g515
Vhigh
p537
tp538
(g518
Vhigh
p539
tp540
tp541
F47.565035437057034
s((g515
Vmedium
p542
tp543
(g518
Vlow
p544
tp545
tp546
F505.09537630779613
s((g515
Vhigh
p547
tp548
(g518
Vlow
p549
tp550
tp551
F29.445021937225786
s((g515
Vlow
p552
tp553
(g518
Vmedium
p554
tp555
tp556
F335.22024974687815
s((g515
Vlow
p557
tp558
(g518
Vlow
p559
tp560
tp561
F412.230307121161
sa(dp562
g521
F21.543691288774752
sg526
F1640.7221734135298
sg531
F170.08177333243225
sg536
F163.27850239913496
sg541
F85.04088666621612
sg546
F811.8569980401433
sg551
F48.75677502196391
sg556
F413.8656484422518
sg561
F510.24531999729675
sa(dp563
g521
F18.92227184553616
sg526
F1503.1852754093923
sg531
F133.969684666396
sg536
F342.11467496729375
sg541
F88.55623223710921
sg546
F669.0915324581586
sg551
F45.41345242928678
sg556
F352.71114720079396
sg561
F572.2095006090134
sa(dp564
g521
F20.93925186359497
sg526
F1421.6054238202853
sg531
F204.8651128276048
sg536
F311.82507504975206
sg541
F87.71848753668162
sg546
F693.8249401288494
sg551
F45.839983809491684
sg556
F370.68135055823524
sg561
F554.607211522245
sa(dp565
g521
F26.699626437944193
sg526
F1388.380574773098
sg531
F260.6607598009467
sg536
F313.1549405941929
sg541
F78.74127118986932
sg546
F628.1200253536703
sg551
F47.51628433871424
sg556
F370.17448180065
sg561
F505.93529419697643
sa(dp566
g521
F26.00597537963878
sg526
F1449.5504537694312
sg531
F283.4274418186719
sg536
F283.05054362476415
sg541
F79.90241710845538
sg546
F565.3472908617126
sg551
F41.45880132985893
sg556
F351.6460149159853
sg561
F478.6607062629167
sa(dp567
g521
F23.59002311248074
sg526
F1430.5894838212635
sg531
F263.0449152542373
sg536
F292.451656394453
sg541
F96.29899845916795
sg546
F542.8936825885978
sg551
F35.54661016949152
sg556
F384.2265408320493
sg561
F449.8261941448382
sa(dp568
g521
F24.90556234976595
sg526
F1393.579420570995
sg531
F341.3194112933834
sg536
F287.26302028423225
sg541
F93.1128410576477
sg546
F569.7147387508961
sg551
F38.207396786572765
sg556
F408.67763673934127
sg561
F414.6210095728082
saa.