(lp0
(lp1
(dp2
a(dp3
((Vcitations
p4
Vlow
p5
tp6
(Vcitations
p7
Vhigh
p8
tp9
tp10
F19.42010533016957
s((g4
Vmedium
p11
tp12
(g7
Vmedium
p13
tp14
tp15
F1056.4537299612246
s((g4
Vhigh
p16
tp17
(g7
Vmedium
p18
tp19
tp20
F415.5902540656288
s((g4
Vhigh
p21
tp22
(g7
Vlow
p23
tp24
tp25
F71.85438972162741
s((g4
Vhigh
p26
tp27
(g7
Vhigh
p28
tp29
tp30
F56.31830545749175
s((g4
Vmedium
p31
tp32
(g7
Vhigh
p33
tp34
tp35
F149.53481104230568
s((g4
Vlow
p36
tp37
(g7
Vmedium
p38
tp39
tp40
F367.03999074020487
s((g4
Vlow
p41
tp42
(g7
Vlow
p43
tp44
tp45
F407.822211933561
s((g4
Vmedium
p46
tp47
(g7
Vlow
p48
tp49
tp50
F450.546443659934
sa(dp51
g10
F15.50736525908382
sg15
F1610.8275662873318
sg20
F302.3936225521345
sg25
F93.04419155450292
sg30
F172.51943850730748
sg35
F415.7912310091849
sg40
F382.8380798336318
sg45
F348.9157183293859
sg50
F371.20755588931894
sa(dp52
g10
F12.82256061445576
sg15
F1435.4856607883223
sg20
F241.70526758249108
sg25
F67.31844322589274
sg30
F119.24981371443856
sg35
F366.7252335734347
sg40
F493.02745562582396
sg45
F333.3865759758497
sg50
F369.93087372704866
sa(dp53
g10
F12.507791779565038
sg15
F1320.5341705733088
sg20
F222.73490745917738
sg25
F55.32292517884535
sg30
F97.17592074892836
sg35
F324.24044843949366
sg40
F418.52995570083004
sg45
F351.1803076570183
sg50
F383.8929938497269
sa(dp54
g10
F11.550058514422084
sg15
F1262.4213956263338
sg20
F266.4213497326694
sg25
F63.9103237798022
sg30
F88.16544666008858
sg35
F324.1716423047798
sg40
F445.4472567062117
sg45
F363.82684320429564
sg50
F374.991899768237
sa(dp55
g10
F16.65183036225522
sg15
F1212.701568881933
sg20
F274.4349734702447
sg25
F56.03981371912815
sg30
F100.87166469443066
sg35
F321.82864450127875
sg40
F413.41371149368246
sg45
F387.15505592243386
sg50
F390.6775584990648
sa(dp56
g10
F20.303878200148816
sg15
F1226.1896172495278
sg20
F257.91412848837683
sg25
F54.60096975445425
sg30
F102.06814446561296
sg35
F322.66703734290553
sg40
F404.1569268759352
sg45
F488.39058373330937
sg50
F370.6829655189331
sa(dp57
g10
F19.208059645959445
sg15
F1236.5188397086392
sg20
F238.6601411010461
sg25
F53.54246626311195
sg30
F91.23828331830735
sg35
F303.24724166058473
sg40
F369.03484594799585
sg45
F488.60501724409335
sg50
F384.64139441033785
saa(lp58
(dp59
a(dp60
((Vcitations
p61
Vlow
p62
tp63
(Vcitations
p64
Vhigh
p65
tp66
tp67
F23.06518501546569
s((g61
Vmedium
p68
tp69
(g64
Vmedium
p70
tp71
tp72
F1476.1718409898042
s((g61
Vhigh
p73
tp74
(g64
Vmedium
p75
tp76
tp77
F301.76950395234275
s((g61
Vmedium
p78
tp79
(g64
Vhigh
p80
tp81
tp82
F196.05407263145835
s((g61
Vhigh
p83
tp84
(g64
Vhigh
p85
tp86
tp87
F107.63753007217322
s((g61
Vmedium
p88
tp89
(g64
Vlow
p90
tp91
tp92
F290.2369114446099
s((g61
Vhigh
p93
tp94
(g64
Vlow
p95
tp96
tp97
F61.50716004124184
s((g61
Vlow
p98
tp99
(g64
Vmedium
p100
tp101
tp102
F451.69320655286975
s((g61
Vlow
p103
tp104
(g64
Vlow
p105
tp106
tp107
F420.93962653224884
sa(dp108
g67
F19.210533848575928
sg72
F1311.118935165307
sg77
F283.3553742664949
sg82
F147.92111063403465
sg87
F105.65793616716759
sg92
F204.5921854873336
sg97
F50.90791469872621
sg102
F380.3685702018033
sg107
F398.61857735795047
sa(dp109
g67
F24.32057982071333
sg72
F1249.9497997329772
sg77
F213.12508106046155
sg82
F174.08415029563227
sg87
F77.44184627121876
sg92
F241.92576769025368
sg97
F44.16105283234789
sg102
F359.0485599847416
sg107
F398.7295060080107
sa(dp110
g67
F22.05675745191621
sg72
F1387.1782458346431
sg77
F213.37515361092852
sg82
F178.85153325140752
sg87
F71.44471435511988
sg92
F273.3119945128747
sg97
F42.6750307221857
sg102
F362.49801377497073
sg107
F401.3370866794319
sa(dp111
g67
F61.33430817035277
sg72
F1302.587369767867
sg77
F221.1868488393347
sg82
F170.58604459879365
sg87
F93.15148053372327
sg92
F281.754478157558
sg97
F47.53408883202339
sg102
F406.3397916285871
sg107
F481.0909797112045
sa(dp112
g67
F55.61132276744895
sg72
F1256.6880524230417
sg77
F245.77647820786345
sg82
F174.50449558061567
sg87
F98.11882810118867
sg92
F299.4701691557452
sg97
F44.74474245656812
sg102
F372.0205729960378
sg107
F460.2316366961292
sa(dp113
g67
F52.62998300875702
sg72
F1436.9081819370017
sg77
F263.97225852829695
sg82
F184.2049405306496
sg87
F99.50356162593125
sg92
F357.44530126780813
sg97
F41.93951771010325
sg102
F402.6741929159587
sg107
F432.27855835838454
sa(dp114
g67
F49.435639245077915
sg72
F1426.6741519999428
sg77
F245.2583655750953
sg82
F185.2636577533988
sg87
F99.11125732144262
sg92
F359.7282680988922
sg97
F38.636591837172546
sg102
F419.72297592058874
sg107
F419.48299708930193
saa(lp115
(dp116
a(dp117
((Vcitations
p118
Vlow
p119
tp120
(Vcitations
p121
Vhigh
p122
tp123
tp124
F250.13508018974474
s((g118
Vmedium
p125
tp126
(g121
Vmedium
p127
tp128
tp129
F1021.384910774791
s((g118
Vhigh
p130
tp131
(g121
Vmedium
p132
tp133
tp134
F92.85317370679918
s((g118
g122
tp135
(g121
g119
tp136
tp137
F17.054664558391686
s((g118
Vhigh
p138
tp139
(g121
Vhigh
p140
tp141
tp142
F87.16828552066862
s((g118
Vmedium
p143
tp144
(g121
Vlow
p145
tp146
tp147
F483.2154958210978
s((g118
Vmedium
p148
tp149
(g121
Vhigh
p150
tp151
tp152
F227.39552744522248
s((g118
Vlow
p153
tp154
(g121
Vmedium
p155
tp156
tp157
F538.1694149536933
s((g118
Vlow
p158
tp159
(g121
Vlow
p160
tp161
tp162
F312.66885023718095
sa(dp163
g124
F238.16751498699242
sg129
F929.8970704671417
sg134
F141.3823096934736
sg137
F44.59710439995476
sg142
F88.24533423820834
sg147
F426.99355276552427
sg152
F179.3372921615202
sg157
F507.64789051012326
sg162
F287.508992195453
sa(dp164
g124
F182.05240075614367
sg129
F977.5008695652174
sg134
F216.30616257088846
sg137
F30.447788279773157
sg142
F90.70903591682419
sg147
F396.45557655954633
sg152
F228.99274102079394
sg157
F468.1347448015123
sg162
F345.0749338374291
sa(dp165
g124
F140.3917174868813
sg129
F967.9889944688697
sg134
F193.21707559211458
sg137
F59.48801588427173
sg142
F76.620564458942
sg147
F375.012452134449
sg152
F206.06648702311728
sg157
F467.33785278683877
sg162
F379.77149340519077
sa(dp166
g124
F120.16711761897183
sg129
F957.1406289079375
sg134
F199.51556353880085
sg137
F63.32616357063277
sg142
F74.3891680498397
sg147
F342.57165594233874
sg152
F278.1010436324777
sg157
F482.57588504126784
sg162
F442.1386962552011
sa(dp167
g124
F103.3725438155812
sg129
F1048.9927677039593
sg134
F199.11142285708868
sg137
F61.70545692376231
sg142
F64.56808121403995
sg147
F360.37259120939535
sg152
F294.5322325330098
sg157
F440.2080019715827
sg162
F525.7686613143253
sa(dp168
g124
F95.2713812712023
sg129
F1044.7093871773386
sg134
F189.99679474142349
sg137
F53.231860595657444
sg142
F64.69718441626058
sg147
F356.78995794115013
sg152
F255.51293085915574
sg157
F426.1278686657501
sg162
F487.54924627612405
sa(dp169
g124
F86.74434162589039
sg129
F1108.8500593001868
sg134
F175.633460929344
sg137
F49.32988658395415
sg142
F61.24531812597206
sg147
F354.1266254287723
sg152
F256.4200867842254
sg157
F470.6595459097075
sg162
F473.99586674147247
saa(lp170
(dp171
a(dp172
((Vcitations
p173
Vlow
p174
tp175
(Vcitations
p176
Vhigh
p177
tp178
tp179
F15.29443938012762
s((g173
Vmedium
p180
tp181
(g176
Vmedium
p182
tp183
tp184
F1108.8468550592524
s((g173
Vhigh
p185
tp186
(g176
Vmedium
p187
tp188
tp189
F428.2443026435734
s((g173
Vmedium
p190
tp191
(g176
Vhigh
p192
tp193
tp194
F217.94576116681858
s((g173
Vhigh
p195
tp196
(g176
Vhigh
p197
tp198
tp199
F210.2985414767548
s((g173
Vmedium
p200
tp201
(g176
Vlow
p202
tp203
tp204
F732.2212853236099
s((g173
Vhigh
p205
tp206
(g176
Vlow
p207
tp208
tp209
F84.11941659070192
s((g173
Vlow
p210
tp211
(g176
Vmedium
p212
tp213
tp214
F401.47903372835003
s((g173
Vlow
p215
tp216
(g176
Vlow
p217
tp218
tp219
F493.24567000911577
sa(dp220
g179
F15.215121716212769
sg184
F1301.843851843455
sg189
F414.61206676679797
sg194
F189.2380763453963
sg199
F135.98515033865164
sg204
F556.3028877490294
sg209
F52.30198089948139
sg214
F343.2911837220506
sg219
F428.87624337574744
sa(dp221
g179
F20.356632353219965
sg184
F1201.6774536010162
sg189
F355.6049214203113
sg194
F139.95184742838728
sg199
F108.14460937648107
sg204
F517.8218354850329
sg209
F46.438567555783045
sg214
F491.1037555214317
sg219
F398.8627651709037
sa(dp222
g179
F31.057982571054282
sg184
F1160.1351028079969
sg189
F310.10201059406506
sg194
F151.46739192344933
sg199
F99.3855442273737
sg204
F481.63763740958024
sg209
F39.65865466765393
sg214
F419.99948738394943
sg219
F418.56604203451616
sa(dp223
g179
F32.53293488303127
sg184
F1289.4524425992038
sg189
F270.980210555131
sg194
F283.6106440979549
sg199
F88.79577521015592
sg204
F467.3260410844844
sg209
F34.06389652458568
sg214
F405.3220946015307
sg219
F419.1007493755204
sa(dp224
g179
F32.620868438107586
sg184
F1167.315390187183
sg189
F248.81407494948724
sg194
F323.3303724600663
sg199
F84.75029545194617
sg204
F451.2553467271549
sg209
F37.09824253745568
sg214
F383.7749228012657
sg219
F406.4816057336739
sa(dp225
g179
F29.59131215807953
sg184
F1231.0533845023272
sg189
F230.702637380583
sg194
F312.6267330774884
sg199
F175.35592389973056
sg204
F428.80003266105984
sg209
F47.40089817914591
sg214
F399.2087205029803
sg219
F381.94712174410057
sa(dp226
g179
F29.72293933181419
sg184
F1229.4270631683466
sg189
F245.21424948746704
sg194
F331.02725175189835
sg199
F164.67467194319636
sg204
F429.7841146930874
sg209
F43.865305626790295
sg214
F383.2820967062168
sg219
F394.3083483938253
saa(lp227
(dp228
a(dp229
((Vcitations
p230
Vlow
p231
tp232
(Vcitations
p233
Vhigh
p234
tp235
tp236
F165.3667984642714
s((g230
Vmedium
p237
tp238
(g233
Vmedium
p239
tp240
tp241
F1351.7774339579394
s((g230
Vhigh
p242
tp243
(g233
Vmedium
p244
tp245
tp246
F255.74167669474528
s((g230
Vhigh
p247
tp248
(g233
Vlow
p249
tp250
tp251
F38.45739499169102
s((g230
Vhigh
p252
tp253
(g233
Vhigh
p254
tp255
tp256
F36.53452524210647
s((g230
Vmedium
p257
tp258
(g233
Vhigh
p259
tp260
tp261
F138.44662197008768
s((g230
Vlow
p262
tp263
(g233
Vmedium
p264
tp265
tp266
F238.43584894848433
s((g230
Vlow
p267
tp268
(g233
Vlow
p269
tp270
tp271
F623.0097988653945
s((g230
Vmedium
p272
tp273
(g233
Vlow
p274
tp275
tp276
F511.48335338949056
sa(dp277
g236
F89.82924189781853
sg241
F1178.2920772341515
sg246
F199.7267186877029
sg251
F69.76100700575269
sg256
F43.00336048299823
sg261
F145.2557954092385
sg266
F423.3441931992937
sg271
F447.2349490231816
sg276
F485.4601583414023
sa(dp278
g236
F66.21303077448488
sg241
F1606.9393237961522
sg246
F197.3657648085607
sg251
F50.9331005957576
sg256
F62.39304822980306
sg261
F128.60607900428795
sg266
F351.4383941107274
sg271
F415.1047698554244
sg276
F415.7414336128714
sa(dp279
g236
F55.29035098933254
sg241
F1400.8477720486924
sg246
F240.7036831863184
sg251
F47.664095680459084
sg256
F80.55232169997585
sg261
F232.60078692064033
sg266
F305.52685331174274
sg271
F402.2849675430747
sg276
F475.21103393417707
sa(dp280
g236
F45.766503000545555
sg241
F1313.8800236406619
sg246
F212.05146390252773
sg251
F62.54755410074559
sg256
F106.78850700127296
sg261
F223.11170212765958
sg266
F299.38920712856884
sg271
F399.69412620476453
sg276
F426.77264048008726
sa(dp281
g236
F44.86096256684492
sg241
F1254.8343004513217
sg246
F205.5332043842682
sg251
F62.67808245154929
sg256
F96.08518223536997
sg261
F260.57537831380137
sg266
F327.0714150263587
sg271
F398.9762202753442
sg276
F427.92904008798877
sa(dp282
g236
F38.44350553325641
sg241
F1261.5468092367194
sg246
F206.94057233859303
sg251
F71.16138258283634
sg256
F93.24594959130279
sg261
F235.2960657815623
sg266
F339.9932723402181
sg271
F398.88545102946193
sg276
F406.2469733656174
sa(dp283
g236
F37.00564208009904
sg241
F1223.8123955005656
sg246
F212.96150151902157
sg251
F77.83122140717605
sg256
F90.72350961572667
sg261
F265.0081465090963
sg266
F362.6552923849706
sg271
F419.2381128558317
sg276
F383.6649472433494
saa(lp284
(dp285
a(dp286
((Vcitations
p287
Vlow
p288
tp289
(Vcitations
p290
Vhigh
p291
tp292
tp293
F19.10389980074011
s((g287
Vmedium
p294
tp295
(g290
Vmedium
p296
tp297
tp298
F1545.5054938798748
s((g287
Vhigh
p299
tp300
(g290
Vmedium
p301
tp302
tp303
F194.8597779675491
s((g287
Vmedium
p304
tp305
(g290
Vhigh
p306
tp307
tp308
F303.75200683176774
s((g287
Vhigh
p309
tp310
(g290
Vhigh
p311
tp312
tp313
F47.75974950185027
s((g287
Vmedium
p314
tp315
(g290
Vlow
p316
tp317
tp318
F433.65852547680043
s((g287
Vhigh
p319
tp320
(g290
Vlow
p321
tp322
tp323
F57.31169940222033
s((g287
Vlow
p324
tp325
(g290
Vmedium
p326
tp327
tp328
F454.67281525761456
s((g287
Vlow
p329
tp330
(g290
Vlow
p331
tp332
tp333
F429.83774551665243
sa(dp334
g293
F19.22263913155558
sg298
F1363.8462463838684
sg303
F178.7705439234669
sg308
F179.7316758800447
sg313
F74.00716065648899
sg318
F589.1738893821786
sg323
F65.35697304728897
sg328
F432.50938046000056
sg333
F395.0252341534672
sa(dp335
g293
F14.01670843776107
sg298
F1276.1575909470646
sg303
F190.49981013138907
sg308
F143.98982304245462
sg313
F53.51834130781499
sg318
F475.93096377306904
sg323
F65.62368041315409
sg328
F488.67342598921545
sg333
F405.8474215842637
sa(dp336
g293
F13.413010892375338
sg298
F1226.8114605490443
sg303
F239.5180516495596
sg308
F156.64480577881199
sg313
F46.94553812331368
sg318
F402.3903267712601
sg323
F49.8197547431084
sg328
F483.8264643321104
sg333
F505.86212508386984
sa(dp337
g293
F15.322899186045184
sg298
F1329.6445768690708
sg303
F251.29554665114102
sg308
F138.6722376337089
sg313
F44.81948011918217
sg318
F386.9032044476409
sg323
F46.73484251743781
sg328
F468.88071509298265
sg333
F460.0700480610067
sa(dp338
g293
F25.520539219880405
sg298
F1242.2122465276786
sg303
F231.2798866801662
sg308
F151.5282016180399
sg313
F51.360085180009314
sg318
F367.49576476627783
sg323
F43.065909933548184
sg328
F442.46234872467653
sg333
F430.65909933548187
sa(dp339
g293
F29.753792839769297
sg298
F1289.240032864499
sg303
F208.27654987838508
sg308
F134.3015236437293
sg313
F49.13470377209609
sg318
F381.6128659632796
sg323
F48.31579204256116
sg328
F434.0232166535154
sg333
F398.5370417070016
sa(dp340
g293
F28.926555765326114
sg298
F1330.8606276493429
sg303
F202.00776546859973
sg308
F144.63277882663058
sg313
F61.4390481957753
sg318
F372.4592882841164
sg323
F53.07186264382147
sg328
F442.50458447618706
sg333
F418.1202151533502
saa(lp341
(dp342
a(dp343
((Vcitations
p344
Vlow
p345
tp346
(Vcitations
p347
Vhigh
p348
tp349
tp350
F31.0236912053623
s((g344
Vmedium
p351
tp352
(g347
Vmedium
p353
tp354
tp355
F672.8263030162949
s((g344
Vhigh
p356
tp357
(g347
Vmedium
p358
tp359
tp360
F147.36253322547094
s((g344
Vhigh
p361
tp362
(g347
Vlow
p363
tp364
tp365
F23.267768404021727
s((g344
Vhigh
p366
tp367
(g347
Vhigh
p368
tp369
tp370
F79.4982087137409
s((g344
Vmedium
p371
tp372
(g347
Vhigh
p373
tp374
tp375
F554.5484802958512
s((g344
Vlow
p376
tp377
(g347
Vmedium
p378
tp379
tp380
F257.88443314457413
s((g344
Vlow
p381
tp382
(g347
Vlow
p383
tp384
tp385
F451.7825031780885
s((g344
Vmedium
p386
tp387
(g347
Vlow
p388
tp389
tp390
F244.31156824222813
sa(dp391
g350
F21.198334529791815
sg355
F712.071328068916
sg360
F158.02394831299353
sg365
F11.56272792534099
sg370
F74.19417085427136
sg375
F626.3144292893037
sg380
F289.0681981335248
sg385
F463.4726776740847
sg390
F323.7563819095477
sa(dp392
g350
F150.518236937639
sg355
F1031.3050386786535
sg360
F156.2583391937354
sg365
F22.96040902438561
sg370
F52.936498584000155
sg375
F486.63311348906166
sg380
F338.0282439701215
sg385
F435.6099823237603
sg390
F269.7848060365309
sa(dp393
g350
F115.12479629470795
sg355
F1084.5715184263945
sg360
F203.86682677187866
sg365
F26.382765817537237
sg370
F50.84678503016268
sg375
F483.5241444377734
sg380
F463.3773050861995
sg385
F420.685193126912
sg390
F250.87611859221775
sa(dp394
g350
F92.18364753957626
sg355
F1176.8779002552567
sg360
F200.11533486716345
sg365
F23.430010416308964
sg370
F50.701006146766936
sg375
F410.6013300825292
sg380
F530.0559733525635
sg385
F397.15788148300766
sg390
F241.21387772855786
sa(dp395
g350
F80.96844185207
sg355
F1109.3314080519826
sg360
F189.98894229855793
sg365
F19.76395037333992
sg370
F58.97307772690137
sg375
F369.1395892310908
sg380
F528.5262857902836
sg385
F432.8942678547679
sg390
F281.47690612353466
sa(dp396
g350
F73.0352400283681
sg355
F1116.0441172874228
sg360
F210.89951334034384
sg365
F20.241976637075805
sg370
F57.16990698849788
sg375
F361.34663699428563
sg380
F499.48445053108674
sg385
F432.7406356737016
sg390
F293.7822014624245
sa(dp397
g350
F69.23208281277887
sg355
F1157.3017026592897
sg360
F196.19749419953595
sg365
F20.841492057826166
sg370
F61.56624665357844
sg375
F323.16290558629305
sg380
F480.0729894699268
sg385
F436.7131036944494
sg390
F304.477429948242
saa(lp398
(dp399
a(dp400
((Vcitations
p401
Vlow
p402
tp403
(Vcitations
p404
Vhigh
p405
tp406
tp407
F38.77065280184864
s((g401
Vmedium
p408
tp409
(g404
Vmedium
p410
tp411
tp412
F967.3277874061237
s((g401
Vhigh
p413
tp414
(g404
Vmedium
p415
tp416
tp417
F182.22206816868862
s((g401
Vhigh
p418
tp419
(g404
Vlow
p420
tp421
tp422
F52.34038128249567
s((g401
Vhigh
p423
tp424
(g404
Vhigh
p425
tp426
tp427
F50.40184864240324
s((g401
Vmedium
p428
tp429
(g404
Vhigh
p430
tp431
tp432
F98.86516464471404
s((g401
Vlow
p433
tp434
(g404
Vmedium
p435
tp436
tp437
F348.9358752166378
s((g401
Vlow
p438
tp439
(g404
Vlow
p440
tp441
tp442
F354.7514731369151
s((g401
Vmedium
p443
tp444
(g404
Vlow
p445
tp446
tp447
F440.04690930098207
sa(dp448
g407
F36.71757659525455
sg412
F1053.2146970744068
sg417
F196.14915917991246
sg422
F38.65008062658374
sg427
F85.03017737848423
sg432
F129.4777700990555
sg437
F358.47949781156416
sg442
F486.99101589495507
sg447
F730.4865238424326
sa(dp449
g407
F29.51049592780943
sg412
F969.9971704966925
sg417
F193.7428210912706
sg422
F25.66130080679081
sg427
F71.85164225901426
sg432
F109.06052842886093
sg437
F387.4856421825412
sg442
F434.9590486751042
sg447
F569.680877910756
sa(dp450
g407
F83.61009837755789
sg412
F868.7761946357739
sg417
F184.51883779874845
sg422
F19.701230077470537
sg427
F116.28530923775293
sg432
F112.92168459037991
sg437
F485.8035026420174
sg442
F451.68673836151964
sg447
F490.12816290292557
sa(dp451
g407
F77.61455578074725
sg412
F970.950408207665
sg417
F313.53206691628594
sg422
F23.438058923889024
sg427
F109.12145466204069
sg432
F109.50568513620281
sg437
F499.49961641074964
sg442
F433.796205329028
sg447
F441.4808148122703
sa(dp452
g407
F66.59905916928274
sg412
F913.8159368708314
sg417
F276.96243356456523
sg422
F29.4572761710289
sg427
F94.4553964179731
sg432
F161.37464337172355
sg437
F478.360549994752
sg442
F419.44599765269413
sg447
F429.6920067556607
sa(dp453
g407
F63.23384103627113
sg412
F938.0602852859004
sg417
F257.3342400432599
sg422
F32.99156923631537
sg427
F94.30090206713477
sg432
F210.8711133687824
sg437
F498.44762521199806
sg442
F427.51575135392
sg447
F393.9743226303327
sa(dp454
g407
F57.162382884914074
sg412
F970.5596186467974
sg417
F242.09950398316548
sg422
F28.821369521805416
sg427
F85.98375240671949
sg432
F200.548696255896
sg437
F528.1515964870842
sg442
F409.0232691302885
sg447
F382.8438584813153
saa(lp455
(dp456
a(dp457
((Vcitations
p458
Vlow
p459
tp460
(Vcitations
p461
Vhigh
p462
tp463
tp464
F41.92594275329396
s((g458
Vmedium
p465
tp466
(g461
Vmedium
p467
tp468
tp469
F1398.8019082235348
s((g458
Vhigh
p470
tp471
(g461
Vmedium
p472
tp473
tp474
F205.81826442526125
s((g458
Vmedium
p475
tp476
(g461
Vhigh
p477
tp478
tp479
F249.6499318491595
s((g458
Vhigh
p480
tp481
(g461
Vhigh
p482
tp483
tp484
F13.340072694229896
s((g458
Vmedium
p485
tp486
(g461
Vlow
p487
tp488
tp489
F306.8216719672876
s((g458
Vhigh
p490
tp491
(g461
Vlow
p492
tp493
tp494
F9.528623353021354
s((g458
Vlow
p495
tp496
(g461
Vmedium
p497
tp498
tp499
F573.6231258518856
s((g458
Vlow
p500
tp501
(g461
Vlow
p502
tp503
tp504
F768.0070422535211
sa(dp505
g464
F30.600210880282695
sg469
F1311.0277849021118
sg474
F237.1516343221909
sg479
F321.30221424296826
sg484
F21.03764498019435
sg489
F382.50263600353367
sg494
F49.72534268045938
sg499
F549.8475392550796
sg504
F581.4040067253712
sa(dp506
g464
F33.14109893449317
sg469
F1357.5103986628933
sg474
F214.7798142485423
sg479
F273.41406620956866
sg484
F22.943837723879888
sg489
F451.8661373953011
sg494
F66.91952669464968
sg499
F558.3000512810772
sg504
F521.3349793926042
sa(dp507
g464
F37.885497055965246
sg469
F1251.180529354599
sg474
F207.1713256731264
sg479
F290.61533184702455
sg484
F26.855542216886754
sg489
F391.8031784142228
sg494
F73.85274109643858
sg499
F597.5358143257303
sg504
F518.8874406905619
sa(dp508
g464
F31.890399038186295
sg469
F1184.1712028396405
sg474
F195.18461098070648
sg479
F258.96540905707906
sg484
F26.5112955859621
sg489
F370.7739165283105
sg494
F75.30744833113872
sg499
F594.0067097956146
sg504
F476.0506555218412
sa(dp509
g464
F29.719613351745156
sg469
F1170.8888529117662
sg474
F231.3655921146612
sg479
F224.33514594543118
sg484
F30.039179086710156
sg489
F444.83550307128235
sg494
F66.46967287272035
sg499
F549.6530641398028
sg504
F470.40076186848245
sa(dp510
g464
F28.685011804933648
sg469
F1152.044712203859
sg474
F269.09272978913947
sg479
F218.27928030611415
sg484
F26.772677684604737
sg489
F453.49637710657004
sg494
F57.370023609867296
sg499
F514.6910689570951
sg504
F499.93877717170074
sa(dp511
g464
F28.452079488695876
sg469
F1180.8808453333522
sg474
F289.7808431957933
sg479
F208.01100130391103
sg484
F29.647545013430996
sg489
F432.28033374421966
sg494
F52.600483088345314
sg499
F495.87909966012813
sg504
F502.5737065986448
saa(lp512
(dp513
a(dp514
((Vcitations
p515
Vlow
p516
tp517
(Vcitations
p518
Vhigh
p519
tp520
tp521
F36.38025677603424
s((g515
Vmedium
p522
tp523
(g518
Vmedium
p524
tp525
tp526
F963.1194293865906
s((g515
Vhigh
p527
tp528
(g518
Vmedium
p529
tp530
tp531
F358.0583166904422
s((g515
Vhigh
p532
tp533
(g518
Vlow
p534
tp535
tp536
F109.1407703281027
s((g515
Vhigh
p537
tp538
(g518
Vhigh
p539
tp540
tp541
F97.65226818830243
s((g515
Vmedium
p542
tp543
(g518
Vhigh
p544
tp545
tp546
F291.0420542082739
s((g515
Vlow
p547
tp548
(g518
Vmedium
p549
tp550
tp551
F499.7498430813124
s((g515
Vlow
p552
tp553
(g518
Vlow
p554
tp555
tp556
F375.29106990014265
s((g515
Vmedium
p557
tp558
(g518
Vlow
p559
tp560
tp561
F762.0706419400856
sa(dp562
g521
F25.94907632822569
sg526
F1042.7684376342547
sg531
F336.3769153658886
sg536
F97.06876700558499
sg541
F107.64061291708435
sg546
F322.92183875125306
sg551
F399.8079908348847
sg556
F626.6221394815982
sg561
F523.7869110697408
sa(dp563
g521
F22.42833953976893
sg526
F997.099894968013
sg531
F288.3643655113148
sg536
F68.5666380215793
sg541
F104.45198128520958
sg546
F284.51950730449727
sg551
F429.3424997612909
sg556
F606.8467869760336
sg561
F429.9833094624272
sa(dp564
g521
F21.691326457321804
sg526
F989.1244864538742
sg531
F280.05912603786595
sg536
F56.87947826586606
sg541
F108.45663228660902
sg546
F423.70391013301924
sg551
F373.09081506593503
sg556
F556.7440457379263
sg561
F399.12040681472115
sa(dp565
g521
F21.15762925598991
sg526
F1036.7238335435056
sg531
F250.42939355726242
sg536
F50.39362604608506
sg541
F97.3250945775536
sg546
F365.06527570789865
sg551
F390.0697466467958
sg556
F519.3236271924796
sg561
F467.7759486415224
sa(dp566
g521
F18.894504781355575
sg526
F1090.7573438185948
sg531
F224.4923364700044
sg536
F65.97064381286862
sg541
F105.36088259433872
sg546
F385.57599587715447
sg551
F393.902387814701
sg556
F500.8644996277987
sg561
F446.74295203374623
sa(dp567
g521
F69.9346159504389
sg526
F1103.8699184333982
sg531
F211.7236216225052
sg536
F58.14171992742371
sg541
F94.06891478823741
sg546
F417.6879219314448
sg551
F444.2905013322
sg556
F490.36507184072445
sg561
F425.915523807967
sa(dp568
g521
F64.6365869202512
sg526
F1090.4120128033455
sg531
F206.88513508675197
sg536
F52.38206672347495
sg541
F87.46363434561871
sg546
F388.78066036047005
sg551
F459.424365024239
sg556
F459.18408031449826
sg561
F421.6996655949474
saa.